; Function Attrs: mustprogress nounwind uwtable
define hidden { i64, i32 } @_ZN11ZDriverPort7receiveEv(ptr noundef nonnull align 8 dereferenceable(136) %0) local_unnamed_addr #2 align 2 {
  %2 = tail call i32 @pthread_mutex_lock(ptr noundef nonnull %0) #9
  %3 = getelementptr inbounds i8, ptr %0, i64 88
  %4 = load i8, ptr %3, align 8
  %5 = trunc i8 %4 to i1
  br i1 %5, label %.critedge.thread, label %.lr.ph

.lr.ph:                                           ; preds = %1
  %6 = getelementptr inbounds i8, ptr %0, i64 128
  br label %10

.critedge.thread:                                 ; preds = %13, %1
  %7 = getelementptr inbounds i8, ptr %0, i64 104
  %8 = load i64, ptr %7, align 8
  %9 = add i64 %8, 1
  store i64 %9, ptr %7, align 8
  %.phi.trans.insert = getelementptr inbounds i8, ptr %0, i64 92
  %.sroa.05.0.copyload.pre = load i64, ptr %.phi.trans.insert, align 4
  %.sroa.26.0..sroa_idx.phi.trans.insert = getelementptr inbounds i8, ptr %0, i64 100
  %.sroa.26.0.copyload.pre = load i32, ptr %.sroa.26.0..sroa_idx.phi.trans.insert, align 4
  br label %_ZN7ZLockerI14ZConditionLockED2Ev.exit

10:                                               ; preds = %.lr.ph, %13
  %11 = load i64, ptr %6, align 8
  %12 = icmp eq i64 %11, 0
  br i1 %12, label %13, label %17

13:                                               ; preds = %10
  %14 = tail call noundef i32 @_ZN15PlatformMonitor4waitEm(ptr noundef nonnull align 8 dereferenceable(88) %0, i64 noundef 0) #9
  %15 = load i8, ptr %3, align 8
  %16 = trunc i8 %15 to i1
  br i1 %16, label %.critedge.thread, label %10, !llvm.loop !6

17:                                               ; preds = %10
  %18 = getelementptr inbounds i8, ptr %0, i64 104
  %19 = load i64, ptr %18, align 8
  %20 = add i64 %19, 1
  store i64 %20, ptr %18, align 8
  %21 = getelementptr inbounds i8, ptr %0, i64 112
  %22 = load ptr, ptr %21, align 8
  %23 = ptrtoint ptr %22 to i64
  %24 = add i64 %23, -72
  %25 = inttoptr i64 %24 to ptr
  %.sroa.01.0.copyload.i = load i64, ptr %25, align 8
  %.sroa.22.0..sroa_idx.i = getelementptr inbounds i8, ptr %25, i64 8
  %.sroa.22.0.copyload.i = load i32, ptr %.sroa.22.0..sroa_idx.i, align 8
  %26 = getelementptr inbounds i8, ptr %0, i64 92
  store i64 %.sroa.01.0.copyload.i, ptr %26, align 4
  %.sroa.24.0..sroa_idx = getelementptr inbounds i8, ptr %0, i64 100
  store i32 %.sroa.22.0.copyload.i, ptr %.sroa.24.0..sroa_idx, align 4
  store i8 1, ptr %3, align 8
  br label %_ZN7ZLockerI14ZConditionLockED2Ev.exit

_ZN7ZLockerI14ZConditionLockED2Ev.exit:           ; preds = %.critedge.thread, %17
  %.sroa.26.0.copyload = phi i32 [ %.sroa.26.0.copyload.pre, %.critedge.thread ], [ %.sroa.22.0.copyload.i, %17 ]
  %.sroa.05.0.copyload = phi i64 [ %.sroa.05.0.copyload.pre, %.critedge.thread ], [ %.sroa.01.0.copyload.i, %17 ]
  %27 = tail call i32 @pthread_mutex_unlock(ptr noundef nonnull %0) #9
  %.fca.0.insert = insertvalue { i64, i32 } poison, i64 %.sroa.05.0.copyload, 0
  %.fca.1.insert = insertvalue { i64, i32 } %.fca.0.insert, i32 %.sroa.26.0.copyload, 1
  ret { i64, i32 } %.fca.1.insert
}